target datalayout = "e-m:e-p270:32:32-p271:32:32-p272:64:64-i64:64-i128:128-f80:128-n8:16:32:64-S128"
target triple = "x86_64-pc-linux-gnu"

%struct.zstream = type { i64, i64, i64, i64, %struct.z_stream_s, ptr }
%struct.z_stream_s = type { ptr, i32, i64, ptr, i32, i64, ptr, ptr, ptr, ptr, ptr, i32, i64, i64 }
%struct.zstream_run_args = type { ptr, ptr, i64, i32, i32, i32, i32 }

; Function Attrs: nounwind sspstrong uwtable
define internal i64 @zstream_run_once_begin(i64 noundef %0) #0 {
  %2 = alloca i64, align 8
  %3 = alloca ptr, align 8
  %4 = alloca ptr, align 8
  store i64 %0, ptr %2, align 8, !tbaa !6
  call void @llvm.lifetime.start.p0(i64 8, ptr %3) #23
  %5 = load i64, ptr %2, align 8, !tbaa !6
  %6 = inttoptr i64 %5 to ptr
  store ptr %6, ptr %3, align 8, !tbaa !107
  call void @llvm.lifetime.start.p0(i64 8, ptr %4) #23
  %7 = load ptr, ptr %3, align 8, !tbaa !107
  %8 = getelementptr inbounds nuw %struct.zstream_run_args, ptr %7, i32 0, i32 0
  %9 = load ptr, ptr %8, align 8, !tbaa !99
  store ptr %9, ptr %4, align 8, !tbaa !21
  %10 = load ptr, ptr %4, align 8, !tbaa !21
  %11 = getelementptr inbounds nuw %struct.zstream, ptr %10, i32 0, i32 1
  %12 = load i64, ptr %11, align 8, !tbaa !35
  %13 = call i64 @rb_str_locktmp(i64 noundef %12)
  %14 = load ptr, ptr %3, align 8, !tbaa !107
  %15 = load ptr, ptr %3, align 8, !tbaa !107
  %16 = call ptr @rb_nogvl(ptr noundef @zstream_run_once, ptr noundef %14, ptr noundef @zstream_unblock_func, ptr noundef %15, i32 noundef 6)
  %17 = ptrtoint ptr %16 to i64
  call void @llvm.lifetime.end.p0(i64 8, ptr %4) #23
  call void @llvm.lifetime.end.p0(i64 8, ptr %3) #23
  ret i64 %17
}