; Function Attrs: nounwind sspstrong uwtable
define internal i64 @zstream_run_once_begin(i64 noundef %0) #0 {
  %2 = inttoptr i64 %0 to ptr
  %3 = load ptr, ptr %2, align 8, !tbaa !61
  %4 = getelementptr inbounds nuw i8, ptr %3, i64 8
  %5 = load i64, ptr %4, align 8, !tbaa !43
  %6 = tail call i64 @rb_str_locktmp(i64 noundef %5) #18
  %7 = tail call ptr @rb_nogvl(ptr noundef nonnull @zstream_run_once, ptr noundef nonnull %2, ptr noundef nonnull @zstream_unblock_func, ptr noundef nonnull %2, i32 noundef 6) #18
  %8 = ptrtoint ptr %7 to i64
  ret i64 %8
}